; Function Attrs: mustprogress uwtable
define internal fastcc void @_ZN4absl18profiling_internal14SampleRecorderINS0_12_GLOBAL__N_14InfoEE10UnregisterEPS3_(ptr noundef nonnull align 8 dereferenceable(96) %this, ptr noundef %sample) unnamed_addr #3 align 2 personality ptr @__gxx_personality_v0 {
entry:
  %dispose_.i = getelementptr inbounds i8, ptr %this, i64 88
  %0 = load atomic i64, ptr %dispose_.i monotonic, align 8
  %tobool.not.i = icmp eq i64 %0, 0
  br i1 %tobool.not.i, label %if.end.i, label %if.then.i

if.then.i:                                        ; preds = %entry
  %1 = inttoptr i64 %0 to ptr
  tail call void %1(ptr noundef nonnull align 8 dereferenceable(52) %sample)
  br label %if.end.i

if.end.i:                                         ; preds = %if.then.i, %entry
  %graveyard_.i = getelementptr inbounds i8, ptr %this, i64 32
  tail call void @_ZN4absl5Mutex4LockEv(ptr noundef nonnull align 8 dereferenceable(8) %graveyard_.i)
  invoke void @_ZN4absl5Mutex4LockEv(ptr noundef nonnull align 8 dereferenceable(8) %sample)
          to label %invoke.cont.i unwind label %lpad.i

invoke.cont.i:                                    ; preds = %if.end.i
  %dead.i = getelementptr inbounds i8, ptr %this, i64 48
  %2 = load ptr, ptr %dead.i, align 8
  %dead4.i = getelementptr inbounds i8, ptr %sample, i64 16
  store ptr %2, ptr %dead4.i, align 8
  store ptr %sample, ptr %dead.i, align 8
  invoke void @_ZN4absl5Mutex6UnlockEv(ptr noundef nonnull align 8 dereferenceable(8) %sample)
          to label %_ZN4absl9MutexLockD2Ev.exit.i unwind label %terminate.lpad.i.i

terminate.lpad.i.i:                               ; preds = %invoke.cont.i
  %3 = landingpad { ptr, i32 }
          catch ptr null
  %4 = extractvalue { ptr, i32 } %3, 0
  tail call void @__clang_call_terminate(ptr %4) #23
  unreachable

_ZN4absl9MutexLockD2Ev.exit.i:                    ; preds = %invoke.cont.i
  invoke void @_ZN4absl5Mutex6UnlockEv(ptr noundef nonnull align 8 dereferenceable(8) %graveyard_.i)
          to label %_ZN4absl18profiling_internal14SampleRecorderINS0_12_GLOBAL__N_14InfoEE8PushDeadEPS3_.exit unwind label %terminate.lpad.i5.i

terminate.lpad.i5.i:                              ; preds = %_ZN4absl9MutexLockD2Ev.exit.i
  %5 = landingpad { ptr, i32 }
          catch ptr null
  %6 = extractvalue { ptr, i32 } %5, 0
  tail call void @__clang_call_terminate(ptr %6) #23
  unreachable

lpad.i:                                           ; preds = %if.end.i
  %7 = landingpad { ptr, i32 }
          cleanup
  invoke void @_ZN4absl5Mutex6UnlockEv(ptr noundef nonnull align 8 dereferenceable(8) %graveyard_.i)
          to label %_ZN4absl9MutexLockD2Ev.exit8.i unwind label %terminate.lpad.i7.i

terminate.lpad.i7.i:                              ; preds = %lpad.i
  %8 = landingpad { ptr, i32 }
          catch ptr null
  %9 = extractvalue { ptr, i32 } %8, 0
  tail call void @__clang_call_terminate(ptr %9) #23
  unreachable

_ZN4absl9MutexLockD2Ev.exit8.i:                   ; preds = %lpad.i
  resume { ptr, i32 } %7

_ZN4absl18profiling_internal14SampleRecorderINS0_12_GLOBAL__N_14InfoEE8PushDeadEPS3_.exit: ; preds = %_ZN4absl9MutexLockD2Ev.exit.i
  %size_estimate_ = getelementptr inbounds i8, ptr %this, i64 8
  %10 = atomicrmw sub ptr %size_estimate_, i64 1 monotonic, align 8
  ret void
}